target datalayout = "e-m:e-p270:32:32-p271:32:32-p272:64:64-i64:64-i128:128-f80:128-n8:16:32:64-S128"
target triple = "x86_64-unknown-linux-gnu"

%struct.PropertyInfo = type { ptr, ptr, ptr, i8, ptr, ptr, ptr, ptr, ptr, ptr }
%struct.DeviceState = type { %struct.Object, ptr, ptr, i8, i8, i64, ptr, i32, i8, ptr, %struct.NamedGPIOListHead, %struct.NamedClockListHead, %struct.BusStateHead, i32, i32, i32, %struct.ResettableState, ptr, %struct.MemReentrancyGuard }
%struct.Object = type { ptr, ptr, ptr, i32, ptr }
%struct.NamedGPIOListHead = type { ptr }
%struct.NamedClockListHead = type { ptr }
%struct.BusStateHead = type { ptr }
%struct.ResettableState = type { i32, i8, i8 }
%struct.MemReentrancyGuard = type { i8 }
%struct.Property = type { ptr, ptr, i64, i8, i64, i8, %union.anon, i32, ptr, i32, ptr }
%union.anon = type { i64 }

@.str = private unnamed_addr constant [34 x i8] c"../qemu/hw/core/qdev-properties.c\00", align 1
@__func__.qdev_prop_set_after_realize = private unnamed_addr constant [28 x i8] c"qdev_prop_set_after_realize\00", align 1
@.str.1 = private unnamed_addr constant [78 x i8] c"Attempt to set property '%s' on device '%s' (type '%s') after it was realized\00", align 1
@.str.2 = private unnamed_addr constant [83 x i8] c"Attempt to set property '%s' on anonymous device (type '%s') after it was realized\00", align 1
@.str.21 = private unnamed_addr constant [7 x i8] c"device\00", align 1
@.str.26 = private unnamed_addr constant [101 x i8] c"/home/dtcxzyw/WorkSpace/Projects/compilers/llvm-opt-benchmark/bench/qemu/qemu/include/hw/qdev-core.h\00", align 1
@__func__.DEVICE = private unnamed_addr constant [7 x i8] c"DEVICE\00", align 1

; Function Attrs: nounwind sspstrong uwtable
define dso_local void @qdev_prop_set_after_realize(ptr noundef %dev, ptr noundef %name, ptr noundef %errp) #0 {
entry:
  %dev.addr = alloca ptr, align 8
  %name.addr = alloca ptr, align 8
  %errp.addr = alloca ptr, align 8
  store ptr %dev, ptr %dev.addr, align 8
  store ptr %name, ptr %name.addr, align 8
  store ptr %errp, ptr %errp.addr, align 8
  %0 = load ptr, ptr %dev.addr, align 8
  %id = getelementptr inbounds %struct.DeviceState, ptr %0, i32 0, i32 1
  %1 = load ptr, ptr %id, align 8
  %tobool = icmp ne ptr %1, null
  br i1 %tobool, label %if.then, label %if.else

if.then:                                          ; preds = %entry
  %2 = load ptr, ptr %errp.addr, align 8
  %3 = load ptr, ptr %name.addr, align 8
  %4 = load ptr, ptr %dev.addr, align 8
  %id1 = getelementptr inbounds %struct.DeviceState, ptr %4, i32 0, i32 1
  %5 = load ptr, ptr %id1, align 8
  %6 = load ptr, ptr %dev.addr, align 8
  %call = call ptr @object_get_typename(ptr noundef %6)
  call void (ptr, ptr, i32, ptr, ptr, ...) @error_setg_internal(ptr noundef %2, ptr noundef @.str, i32 noundef 21, ptr noundef @__func__.qdev_prop_set_after_realize, ptr noundef @.str.1, ptr noundef %3, ptr noundef %5, ptr noundef %call)
  br label %if.end

if.else:                                          ; preds = %entry
  %7 = load ptr, ptr %errp.addr, align 8
  %8 = load ptr, ptr %name.addr, align 8
  %9 = load ptr, ptr %dev.addr, align 8
  %call2 = call ptr @object_get_typename(ptr noundef %9)
  call void (ptr, ptr, i32, ptr, ptr, ...) @error_setg_internal(ptr noundef %7, ptr noundef @.str, i32 noundef 25, ptr noundef @__func__.qdev_prop_set_after_realize, ptr noundef @.str.2, ptr noundef %8, ptr noundef %call2)
  br label %if.end

if.end:                                           ; preds = %if.else, %if.then
  ret void
}

; Function Attrs: nounwind sspstrong uwtable
define internal ptr @DEVICE(ptr noundef %obj) #0 {
entry:
  %obj.addr = alloca ptr, align 8
  store ptr %obj, ptr %obj.addr, align 8
  %0 = load ptr, ptr %obj.addr, align 8
  %call = call ptr @object_dynamic_cast_assert(ptr noundef %0, ptr noundef @.str.21, ptr noundef @.str.26, i32 noundef 77, ptr noundef @__func__.DEVICE)
  ret ptr %call
}

; Function Attrs: nounwind sspstrong uwtable
define internal zeroext i1 @qdev_prop_allow_set(ptr noundef %obj, ptr noundef %name, ptr noundef %info, ptr noundef %errp) #0 {
entry:
  %retval = alloca i1, align 1
  %obj.addr = alloca ptr, align 8
  %name.addr = alloca ptr, align 8
  %info.addr = alloca ptr, align 8
  %errp.addr = alloca ptr, align 8
  %dev = alloca ptr, align 8
  store ptr %obj, ptr %obj.addr, align 8
  store ptr %name, ptr %name.addr, align 8
  store ptr %info, ptr %info.addr, align 8
  store ptr %errp, ptr %errp.addr, align 8
  %0 = load ptr, ptr %obj.addr, align 8
  %call = call ptr @DEVICE(ptr noundef %0)
  store ptr %call, ptr %dev, align 8
  %1 = load ptr, ptr %dev, align 8
  %realized = getelementptr inbounds %struct.DeviceState, ptr %1, i32 0, i32 3
  %2 = load i8, ptr %realized, align 8
  %tobool = trunc i8 %2 to i1
  br i1 %tobool, label %land.lhs.true, label %if.end

land.lhs.true:                                    ; preds = %entry
  %3 = load ptr, ptr %info.addr, align 8
  %realized_set_allowed = getelementptr inbounds %struct.PropertyInfo, ptr %3, i32 0, i32 3
  %4 = load i8, ptr %realized_set_allowed, align 8
  %tobool1 = trunc i8 %4 to i1
  br i1 %tobool1, label %if.end, label %if.then

if.then:                                          ; preds = %land.lhs.true
  %5 = load ptr, ptr %dev, align 8
  %6 = load ptr, ptr %name.addr, align 8
  %7 = load ptr, ptr %errp.addr, align 8
  call void @qdev_prop_set_after_realize(ptr noundef %5, ptr noundef %6, ptr noundef %7)
  store i1 false, ptr %retval, align 1
  br label %return

if.end:                                           ; preds = %land.lhs.true, %entry
  store i1 true, ptr %retval, align 1
  br label %return

return:                                           ; preds = %if.end, %if.then
  %8 = load i1, ptr %retval, align 1
  ret i1 %8
}

; Function Attrs: nounwind sspstrong uwtable
define internal void @field_prop_set(ptr noundef %obj, ptr noundef %v, ptr noundef %name, ptr noundef %opaque, ptr noundef %errp) #0 {
entry:
  %obj.addr = alloca ptr, align 8
  %v.addr = alloca ptr, align 8
  %name.addr = alloca ptr, align 8
  %opaque.addr = alloca ptr, align 8
  %errp.addr = alloca ptr, align 8
  %prop = alloca ptr, align 8
  store ptr %obj, ptr %obj.addr, align 8
  store ptr %v, ptr %v.addr, align 8
  store ptr %name, ptr %name.addr, align 8
  store ptr %opaque, ptr %opaque.addr, align 8
  store ptr %errp, ptr %errp.addr, align 8
  %0 = load ptr, ptr %opaque.addr, align 8
  store ptr %0, ptr %prop, align 8
  %1 = load ptr, ptr %obj.addr, align 8
  %2 = load ptr, ptr %name.addr, align 8
  %3 = load ptr, ptr %prop, align 8
  %info = getelementptr inbounds %struct.Property, ptr %3, i32 0, i32 1
  %4 = load ptr, ptr %info, align 8
  %5 = load ptr, ptr %errp.addr, align 8
  %call = call zeroext i1 @qdev_prop_allow_set(ptr noundef %1, ptr noundef %2, ptr noundef %4, ptr noundef %5)
  br i1 %call, label %if.end, label %if.then

if.then:                                          ; preds = %entry
  br label %return

if.end:                                           ; preds = %entry
  %6 = load ptr, ptr %prop, align 8
  %info1 = getelementptr inbounds %struct.Property, ptr %6, i32 0, i32 1
  %7 = load ptr, ptr %info1, align 8
  %set = getelementptr inbounds %struct.PropertyInfo, ptr %7, i32 0, i32 8
  %8 = load ptr, ptr %set, align 8
  %9 = load ptr, ptr %obj.addr, align 8
  %10 = load ptr, ptr %v.addr, align 8
  %11 = load ptr, ptr %name.addr, align 8
  %12 = load ptr, ptr %opaque.addr, align 8
  %13 = load ptr, ptr %errp.addr, align 8
  call void %8(ptr noundef %9, ptr noundef %10, ptr noundef %11, ptr noundef %12, ptr noundef %13)
  br label %return

return:                                           ; preds = %if.end, %if.then
  ret void
}