; Function Attrs: nounwind sspstrong uwtable
define internal void @field_prop_set(ptr noundef %obj, ptr noundef %v, ptr noundef %name, ptr noundef %opaque, ptr noundef %errp) #0 {
entry:
  %info = getelementptr inbounds nuw i8, ptr %opaque, i64 8
  %0 = load ptr, ptr %info, align 8
  %call.i.i = tail call ptr @object_dynamic_cast_assert(ptr noundef %obj, ptr noundef nonnull @.str.21, ptr noundef nonnull @.str.26, i32 noundef 77, ptr noundef nonnull @__func__.DEVICE) #9
  %realized.i = getelementptr inbounds nuw i8, ptr %call.i.i, i64 56
  %1 = load i8, ptr %realized.i, align 8
  %tobool.i = trunc i8 %1 to i1
  br i1 %tobool.i, label %land.lhs.true.i, label %if.end

land.lhs.true.i:                                  ; preds = %entry
  %realized_set_allowed.i = getelementptr inbounds nuw i8, ptr %0, i64 24
  %2 = load i8, ptr %realized_set_allowed.i, align 8
  %tobool1.i = trunc i8 %2 to i1
  br i1 %tobool1.i, label %if.end, label %if.then.i

if.then.i:                                        ; preds = %land.lhs.true.i
  %id.i.i = getelementptr inbounds nuw i8, ptr %call.i.i, i64 40
  %3 = load ptr, ptr %id.i.i, align 8
  %tobool.not.i.i = icmp eq ptr %3, null
  %call2.i.i = tail call ptr @object_get_typename(ptr noundef nonnull %call.i.i) #9
  br i1 %tobool.not.i.i, label %if.else.i.i, label %if.then.i.i

if.then.i.i:                                      ; preds = %if.then.i
  tail call void (ptr, ptr, i32, ptr, ptr, ...) @error_setg_internal(ptr noundef %errp, ptr noundef nonnull @.str, i32 noundef 21, ptr noundef nonnull @__func__.qdev_prop_set_after_realize, ptr noundef nonnull @.str.1, ptr noundef %name, ptr noundef nonnull %3, ptr noundef %call2.i.i) #9
  br label %return

if.else.i.i:                                      ; preds = %if.then.i
  tail call void (ptr, ptr, i32, ptr, ptr, ...) @error_setg_internal(ptr noundef %errp, ptr noundef nonnull @.str, i32 noundef 25, ptr noundef nonnull @__func__.qdev_prop_set_after_realize, ptr noundef nonnull @.str.2, ptr noundef %name, ptr noundef %call2.i.i) #9
  br label %return

if.end:                                           ; preds = %land.lhs.true.i, %entry
  %4 = load ptr, ptr %info, align 8
  %set = getelementptr inbounds nuw i8, ptr %4, i64 64
  %5 = load ptr, ptr %set, align 8
  tail call void %5(ptr noundef %obj, ptr noundef %v, ptr noundef %name, ptr noundef nonnull %opaque, ptr noundef %errp) #9
  br label %return

return:                                           ; preds = %if.else.i.i, %if.then.i.i, %if.end
  ret void
}